; Function Attrs: nounwind uwtable
define hidden void @VP8LDelete(ptr noundef %0) local_unnamed_addr #1 {
  %.not = icmp eq ptr %0, null
  br i1 %.not, label %3, label %2

2:                                                ; preds = %1
  tail call fastcc void @VP8LClear(ptr noundef %0)
  tail call void @WebPSafeFree(ptr noundef nonnull %0) #8
  br label %3

3:                                                ; preds = %2, %1
  ret void
}